target datalayout = "e-m:e-p270:32:32-p271:32:32-p272:64:64-i64:64-i128:128-f80:128-n8:16:32:64-S128"
target triple = "x86_64-pc-linux-gnu"

%struct.RBasic = type { i64, i64 }

; Function Attrs: inlinehint nounwind sspstrong willreturn memory(read) uwtable
define internal i64 @RB_FL_TEST_RAW(i64 noundef %0, i64 noundef %1) #4 {
  %3 = alloca i64, align 8
  %4 = alloca i64, align 8
  store i64 %0, ptr %3, align 8, !tbaa !13
  store i64 %1, ptr %4, align 8, !tbaa !13
  %5 = load i64, ptr %3, align 8, !tbaa !13
  %6 = inttoptr i64 %5 to ptr
  %7 = getelementptr inbounds nuw %struct.RBasic, ptr %6, i32 0, i32 0
  %8 = load i64, ptr %7, align 8, !tbaa !107
  %9 = load i64, ptr %4, align 8, !tbaa !13
  %10 = and i64 %8, %9
  ret i64 %10
}

; Function Attrs: inlinehint nounwind sspstrong uwtable
define internal i32 @RB_ENCODING_GET_INLINED(i64 noundef %0) #7 {
  %2 = alloca i64, align 8
  %3 = alloca i64, align 8
  store i64 %0, ptr %2, align 8, !tbaa !13
  call void @llvm.lifetime.start.p0(i64 8, ptr %3) #5
  %4 = load i64, ptr %2, align 8, !tbaa !13
  %5 = call i64 @RB_FL_TEST_RAW(i64 noundef %4, i64 noundef 532676608) #25
  %6 = lshr i64 %5, 22
  store i64 %6, ptr %3, align 8, !tbaa !13
  %7 = load i64, ptr %3, align 8, !tbaa !13
  %8 = trunc i64 %7 to i32
  call void @llvm.lifetime.end.p0(i64 8, ptr %3) #5
  ret i32 %8
}

; Function Attrs: inlinehint nounwind sspstrong uwtable
define internal i32 @RB_ENCODING_GET(i64 noundef %0) #7 {
  %2 = alloca i32, align 4
  %3 = alloca i64, align 8
  %4 = alloca i32, align 4
  %5 = alloca i32, align 4
  store i64 %0, ptr %3, align 8, !tbaa !13
  call void @llvm.lifetime.start.p0(i64 4, ptr %4) #5
  %6 = load i64, ptr %3, align 8, !tbaa !13
  %7 = call i32 @RB_ENCODING_GET_INLINED(i64 noundef %6)
  store i32 %7, ptr %4, align 4, !tbaa !11
  %8 = load i32, ptr %4, align 4, !tbaa !11
  %9 = icmp eq i32 %8, 127
  br i1 %9, label %10, label %13

10:                                               ; preds = %1
  %11 = load i64, ptr %3, align 8, !tbaa !13
  %12 = call i32 @rb_enc_get_index(i64 noundef %11)
  store i32 %12, ptr %2, align 4
  store i32 1, ptr %5, align 4
  br label %15

13:                                               ; preds = %1
  %14 = load i32, ptr %4, align 4, !tbaa !11
  store i32 %14, ptr %2, align 4
  store i32 1, ptr %5, align 4
  br label %15

15:                                               ; preds = %13, %10
  call void @llvm.lifetime.end.p0(i64 4, ptr %4) #5
  %16 = load i32, ptr %2, align 4
  ret i32 %16
}

; Function Attrs: nounwind sspstrong uwtable
define hidden i32 @rb_ENCODING_GET(i64 noundef %0) #0 {
  %2 = alloca i64, align 8
  store i64 %0, ptr %2, align 8, !tbaa !13
  %3 = load i64, ptr %2, align 8, !tbaa !13
  %4 = call i32 @RB_ENCODING_GET(i64 noundef %3)
  ret i32 %4
}