; Function Attrs: nounwind sspstrong uwtable
define hidden i32 @rb_ENCODING_GET(i64 noundef %0) local_unnamed_addr #0 {
  %2 = inttoptr i64 %0 to ptr
  %3 = load i64, ptr %2, align 8, !tbaa !11
  %4 = trunc i64 %3 to i32
  %5 = lshr i32 %4, 22
  %6 = and i32 %5, 127
  %7 = icmp eq i32 %6, 127
  br i1 %7, label %8, label %RB_ENCODING_GET.exit

8:                                                ; preds = %1
  %9 = tail call i32 @rb_enc_get_index(i64 noundef %0) #5
  br label %RB_ENCODING_GET.exit

RB_ENCODING_GET.exit:                             ; preds = %1, %8
  %.0.i = phi i32 [ %9, %8 ], [ %6, %1 ]
  ret i32 %.0.i
}